; ModuleID = '29/1491.c'
source_filename = "29/1491.c"
target datalayout = "e-m:e-p270:32:32-p271:32:32-p272:64:64-i64:64-f80:128-n8:16:32:64-S128"
target triple = "x86_64-pc-linux-gnu"

@.str = private unnamed_addr constant [3 x i8] c"%d\00", align 1
@.str.1 = private unnamed_addr constant [6 x i8] c"%.3f\0A\00", align 1

; Function Attrs: noinline nounwind uwtable
define dso_local i32 @main() #0 {
  %1 = alloca i32, align 4
  %2 = alloca i32, align 4
  %3 = alloca i32, align 4
  %4 = alloca i32, align 4
  %5 = alloca float, align 4
  %6 = alloca float, align 4
  %7 = alloca float, align 4
  %8 = alloca float, align 4
  %9 = alloca i32, align 4
  store i32 0, i32* %1, align 4
  %10 = call i32 (i8*, ...) @__isoc99_scanf(i8* getelementptr inbounds ([3 x i8], [3 x i8]* @.str, i64 0, i64 0), i32* %2)
  store i32 0, i32* %4, align 4
  br label %11

11:                                               ; preds = %46, %0
  %12 = load i32, i32* %4, align 4
  %13 = load i32, i32* %2, align 4
  %14 = icmp slt i32 %12, %13
  br i1 %14, label %15, label %49

15:                                               ; preds = %11
  %16 = call i32 (i8*, ...) @__isoc99_scanf(i8* getelementptr inbounds ([3 x i8], [3 x i8]* @.str, i64 0, i64 0), i32* %3)
  store float 0.000000e+00, float* %5, align 4
  store float 2.000000e+00, float* %6, align 4
  store float 1.000000e+00, float* %7, align 4
  store i32 1, i32* %9, align 4
  br label %17

17:                                               ; preds = %39, %15
  %18 = load i32, i32* %9, align 4
  %19 = load i32, i32* %3, align 4
  %20 = icmp sle i32 %18, %19
  br i1 %20, label %21, label %42

21:                                               ; preds = %17
  %22 = load i32, i32* %9, align 4
  %23 = icmp eq i32 %22, 1
  br i1 %23, label %24, label %25

24:                                               ; preds = %21
  store float 2.000000e+00, float* %5, align 4
  br label %38

25:                                               ; preds = %21
  %26 = load float, float* %6, align 4
  %27 = load float, float* %7, align 4
  %28 = fadd float %26, %27
  %29 = load float, float* %6, align 4
  %30 = fdiv float %28, %29
  %31 = load float, float* %5, align 4
  %32 = fadd float %30, %31
  store float %32, float* %5, align 4
  %33 = load float, float* %6, align 4
  store float %33, float* %8, align 4
  %34 = load float, float* %6, align 4
  %35 = load float, float* %7, align 4
  %36 = fadd float %34, %35
  store float %36, float* %6, align 4
  %37 = load float, float* %8, align 4
  store float %37, float* %7, align 4
  br label %38

38:                                               ; preds = %25, %24
  br label %39

39:                                               ; preds = %38
  %40 = load i32, i32* %9, align 4
  %41 = add nsw i32 %40, 1
  store i32 %41, i32* %9, align 4
  br label %17

42:                                               ; preds = %17
  %43 = load float, float* %5, align 4
  %44 = fpext float %43 to double
  %45 = call i32 (i8*, ...) @printf(i8* getelementptr inbounds ([6 x i8], [6 x i8]* @.str.1, i64 0, i64 0), double %44)
  store float 0.000000e+00, float* %5, align 4
  br label %46

46:                                               ; preds = %42
  %47 = load i32, i32* %4, align 4
  %48 = add nsw i32 %47, 1
  store i32 %48, i32* %4, align 4
  br label %11

49:                                               ; preds = %11
  %50 = load i32, i32* %1, align 4
  ret i32 %50
}

declare dso_local i32 @__isoc99_scanf(i8*, ...) #1

declare dso_local i32 @printf(i8*, ...) #1


!llvm.module.flags = !{!0}
!llvm.ident = !{!1}

!0 = !{i32 1, !"wchar_size", i32 4}
!1 = !{!"clang version 10.0.0-4ubuntu1 "}
